Microsoft (R) Macro Assembler Version 5.10                  10/6/16 12:58:00
                                                             Page     1-1


 0000				AStack SEGMENT STACK
 0000  000C[			    DW 12 DUP(?)
	   ????			
			 ]	
				
 0018				AStack ENDS
				
				
 0000				DATA SEGMENT
				
 0000  0001			a DW 1
 0002  0002			b DW 2
 0004  0003			i DW 3
 0006  0004			k DW 4
				
 0008  0000			i1 DW 0
 000A  0000			i2 DW 0
 000C  0000			res DW 0
				
 000E				DATA ENDS
				
				
 0000				CODE SEGMENT
				     ASSUME CS:CODE, DS:DATA, SS:AStack
				
				
 0000				Main PROC FAR
 0000  1E			    push ds
 0001  33 C0			    xor ax, ax
 0003  50			    push ax
				
 0004  B8 ---- R		    mov ax, DATA
 0007  8E D8			    mov ds,ax
				
 0009  A1 0000 R		    mov ax, a
				
				
				; F1
				    ; si = i
				    ; di = 2i
 000C  8B 36 0004 R		    mov si, i
 0010  8B FE			    mov di, si
 0012  D1 E7			    shl di, 1
				
 0014  3B 06 0002 R		    cmp ax, b
 0018  7F 0A			    jg F3_L
				    ; a <= b
				
				    ; cx = 3i
 001A  03 FE			    add di, si
 001C  8B CF			    mov cx, di
				
 001E  83 C1 04			    add cx, 4
 0021  EB 06 90			    jmp F1_STO
Microsoft (R) Macro Assembler Version 5.10                  10/6/16 12:58:00
                                                             Page     1-2


				    
 0024				F3_L:
				    ; a > b
				
 0024  B9 000F			    mov cx, 15
 0027  2B CF			    sub cx, di
				    
 0029				F1_STO:
				    ; store result
 0029  89 0E 0008 R		    mov i1, cx
				
				
				; F5
				    ; di *= 2
 002D  D1 E7			    shl di, 1
				    ; di = -di
 002F  F7 DF			    neg di
				
 0031  3B 06 0002 R		    cmp ax, b
 0035  7F 06			    jg F5_L
				    ; a <= b
 0037  83 C7 06			    add di, 6
				
 003A  EB 04 90			    jmp F5_STO
				
 003D				F5_L:
				    ; a > b
 003D  83 C7 14			    add di, 20
				
 0040				F5_STO:
				    ; store result
 0040  89 3E 000A R		    mov i2, di
				
				
				; F4
				    ; ax = -i2 
 0044  33 C0			    xor ax, ax
 0046  2B 06 000A R		    sub ax, i2
				
 004A  83 3E 0006 R 00		    cmp k, 0
 004F  7D 16			    jge F4_L
				    ; k < 0
				        ; ax = i1 - i2
 0051  03 06 0008 R		        add ax, i1
				
				        ; ax = |i1 - i2|
 0055  3D 0000			        cmp ax, 0
 0058  7F 02			        jg MODULO_END
 005A  F7 D8			        neg ax
 005C				    MODULO_END:
				
				        ; min
				
 005C  3D 0002			        cmp ax, 2
Microsoft (R) Macro Assembler Version 5.10                  10/6/16 12:58:00
                                                             Page     1-3


				        ; min = ax
 005F  7C 0E			        jl F4_STO
				
 0061  B8 0002			        mov ax, 2
				        ; min = 2
 0064  EB 09 90			        jmp F4_STO 
				
 0067				F4_L:      
				    ; else 
				    ; k >= 0
 0067  3D FFFA			        cmp ax, -6
				        ; max = ax
 006A  7F 03			        jg F4_STO
				        ; max = -6
 006C  B8 FFFA			        mov ax, -6
				
 006F				F4_STO:
 006F  A3 000C R		    mov res, ax
				
 0072  CA 0002			    ret 2
 0075				Main ENDP
 0075				CODE ENDS
				
				END Main
Microsoft (R) Macro Assembler Version 5.10                  10/6/16 12:58:00
                                                             Symbols-1


Segments and Groups:

                N a m e         	Length	 Align	Combine Class

ASTACK . . . . . . . . . . . . .  	0018	PARA	STACK	
CODE . . . . . . . . . . . . . .  	0075	PARA	NONE	
DATA . . . . . . . . . . . . . .  	000E	PARA	NONE	

Symbols:            

                N a m e         	Type	 Value	 Attr

A  . . . . . . . . . . . . . . .  	L WORD	0000	DATA

B  . . . . . . . . . . . . . . .  	L WORD	0002	DATA

F1_STO . . . . . . . . . . . . .  	L NEAR	0029	CODE
F3_L . . . . . . . . . . . . . .  	L NEAR	0024	CODE
F4_L . . . . . . . . . . . . . .  	L NEAR	0067	CODE
F4_STO . . . . . . . . . . . . .  	L NEAR	006F	CODE
F5_L . . . . . . . . . . . . . .  	L NEAR	003D	CODE
F5_STO . . . . . . . . . . . . .  	L NEAR	0040	CODE

I  . . . . . . . . . . . . . . .  	L WORD	0004	DATA
I1 . . . . . . . . . . . . . . .  	L WORD	0008	DATA
I2 . . . . . . . . . . . . . . .  	L WORD	000A	DATA

K  . . . . . . . . . . . . . . .  	L WORD	0006	DATA

MAIN . . . . . . . . . . . . . .  	F PROC	0000	CODE	Length = 0075
MODULO_END . . . . . . . . . . .  	L NEAR	005C	CODE

RES  . . . . . . . . . . . . . .  	L WORD	000C	DATA

@CPU . . . . . . . . . . . . . .  	TEXT  0101h		
@FILENAME  . . . . . . . . . . .  	TEXT  lab3		
@VERSION . . . . . . . . . . . .  	TEXT  510		


    129 Source  Lines
    129 Total   Lines
     23 Symbols

  47974 + 461317 Bytes symbol space free

      0 Warning Errors
      0 Severe  Errors
